; Function Attrs: mustprogress nofree norecurse nosync nounwind memory(readwrite, inaccessiblemem: none) uwtable
define internal void @_ZN2cvL14randnScale_32fEPKfPfiiS1_S1_b(ptr nocapture noundef readonly %0, ptr nocapture noundef writeonly %1, i32 noundef %2, i32 noundef %3, ptr nocapture noundef readonly %4, ptr nocapture noundef readonly %5, i1 noundef zeroext %6) #11 {
  br i1 %6, label %.preheader65.i, label %24

.preheader65.i:                                   ; preds = %7
  %8 = icmp sgt i32 %2, 0
  br i1 %8, label %.preheader.lr.ph.i, label %_ZN2cvL11randnScale_IffEEvPKfPT_iiPKT0_S7_b.exit

.preheader.lr.ph.i:                               ; preds = %.preheader65.i
  %9 = icmp sgt i32 %3, 0
  %10 = sext i32 %3 to i64
  br i1 %9, label %.preheader.us.preheader.i, label %_ZN2cvL11randnScale_IffEEvPKfPT_iiPKT0_S7_b.exit

.preheader.us.preheader.i:                        ; preds = %.preheader.lr.ph.i
  %11 = zext nneg i32 %3 to i64
  br label %.preheader.us.i

.preheader.us.i:                                  ; preds = %._crit_edge80.split.us.us.i, %.preheader.us.preheader.i
  %.184.us.i = phi ptr [ %22, %._crit_edge80.split.us.us.i ], [ %0, %.preheader.us.preheader.i ]
  %.15783.us.i = phi ptr [ %23, %._crit_edge80.split.us.us.i ], [ %1, %.preheader.us.preheader.i ]
  %.282.us.i = phi i32 [ %21, %._crit_edge80.split.us.us.i ], [ 0, %.preheader.us.preheader.i ]
  br label %.lr.ph77.us.us.i

.lr.ph77.us.us.i:                                 ; preds = %._crit_edge.us81.us.i, %.preheader.us.i
  %indvars.iv101.i = phi i64 [ %indvars.iv.next102.i, %._crit_edge.us81.us.i ], [ 0, %.preheader.us.i ]
  %12 = getelementptr inbounds float, ptr %4, i64 %indvars.iv101.i
  %13 = load float, ptr %12, align 4
  %14 = mul nuw nsw i64 %indvars.iv101.i, %11
  %invariant.gep.i = getelementptr inbounds float, ptr %5, i64 %14
  br label %15

15:                                               ; preds = %15, %.lr.ph77.us.us.i
  %indvars.iv96.i = phi i64 [ %indvars.iv.next97.i, %15 ], [ 0, %.lr.ph77.us.us.i ]
  %.076.us.us.i = phi float [ %19, %15 ], [ %13, %.lr.ph77.us.us.i ]
  %16 = getelementptr inbounds float, ptr %.184.us.i, i64 %indvars.iv96.i
  %17 = load float, ptr %16, align 4
  %gep.i = getelementptr inbounds float, ptr %invariant.gep.i, i64 %indvars.iv96.i
  %18 = load float, ptr %gep.i, align 4
  %19 = tail call float @llvm.fmuladd.f32(float %17, float %18, float %.076.us.us.i)
  %indvars.iv.next97.i = add nuw nsw i64 %indvars.iv96.i, 1
  %exitcond100.not.i = icmp eq i64 %indvars.iv.next97.i, %11
  br i1 %exitcond100.not.i, label %._crit_edge.us81.us.i, label %15, !llvm.loop !132

._crit_edge.us81.us.i:                            ; preds = %15
  %20 = getelementptr inbounds float, ptr %.15783.us.i, i64 %indvars.iv101.i
  store float %19, ptr %20, align 4
  %indvars.iv.next102.i = add nuw nsw i64 %indvars.iv101.i, 1
  %exitcond105.not.i = icmp eq i64 %indvars.iv.next102.i, %11
  br i1 %exitcond105.not.i, label %._crit_edge80.split.us.us.i, label %.lr.ph77.us.us.i, !llvm.loop !133

._crit_edge80.split.us.us.i:                      ; preds = %._crit_edge.us81.us.i
  %21 = add nuw nsw i32 %.282.us.i, 1
  %22 = getelementptr inbounds float, ptr %.184.us.i, i64 %10
  %23 = getelementptr inbounds float, ptr %.15783.us.i, i64 %10
  %exitcond106.not.i = icmp eq i32 %21, %2
  br i1 %exitcond106.not.i, label %_ZN2cvL11randnScale_IffEEvPKfPT_iiPKT0_S7_b.exit, label %.preheader.us.i, !llvm.loop !134

24:                                               ; preds = %7
  %25 = icmp eq i32 %3, 1
  br i1 %25, label %41, label %.preheader68.i

.preheader68.i:                                   ; preds = %24
  %26 = icmp sgt i32 %2, 0
  br i1 %26, label %.preheader67.lr.ph.i, label %_ZN2cvL11randnScale_IffEEvPKfPT_iiPKT0_S7_b.exit

.preheader67.lr.ph.i:                             ; preds = %.preheader68.i
  %27 = icmp sgt i32 %3, 0
  %28 = sext i32 %3 to i64
  br i1 %27, label %.preheader67.us.preheader.i, label %_ZN2cvL11randnScale_IffEEvPKfPT_iiPKT0_S7_b.exit

.preheader67.us.preheader.i:                      ; preds = %.preheader67.lr.ph.i
  %wide.trip.count.i = zext nneg i32 %3 to i64
  br label %.preheader67.us.i

.preheader67.us.i:                                ; preds = %._crit_edge.us.i, %.preheader67.us.preheader.i
  %.05573.us.i = phi ptr [ %39, %._crit_edge.us.i ], [ %0, %.preheader67.us.preheader.i ]
  %.05672.us.i = phi ptr [ %40, %._crit_edge.us.i ], [ %1, %.preheader67.us.preheader.i ]
  %.16271.us.i = phi i32 [ %38, %._crit_edge.us.i ], [ 0, %.preheader67.us.preheader.i ]
  br label %29

29:                                               ; preds = %29, %.preheader67.us.i
  %indvars.iv.i = phi i64 [ 0, %.preheader67.us.i ], [ %indvars.iv.next.i, %29 ]
  %30 = getelementptr inbounds float, ptr %.05573.us.i, i64 %indvars.iv.i
  %31 = load float, ptr %30, align 4
  %32 = getelementptr inbounds float, ptr %5, i64 %indvars.iv.i
  %33 = load float, ptr %32, align 4
  %34 = getelementptr inbounds float, ptr %4, i64 %indvars.iv.i
  %35 = load float, ptr %34, align 4
  %36 = tail call float @llvm.fmuladd.f32(float %31, float %33, float %35)
  %37 = getelementptr inbounds float, ptr %.05672.us.i, i64 %indvars.iv.i
  store float %36, ptr %37, align 4
  %indvars.iv.next.i = add nuw nsw i64 %indvars.iv.i, 1
  %exitcond.not.i = icmp eq i64 %indvars.iv.next.i, %wide.trip.count.i
  br i1 %exitcond.not.i, label %._crit_edge.us.i, label %29, !llvm.loop !135

._crit_edge.us.i:                                 ; preds = %29
  %38 = add nuw nsw i32 %.16271.us.i, 1
  %39 = getelementptr inbounds float, ptr %.05573.us.i, i64 %28
  %40 = getelementptr inbounds float, ptr %.05672.us.i, i64 %28
  %exitcond90.not.i = icmp eq i32 %38, %2
  br i1 %exitcond90.not.i, label %_ZN2cvL11randnScale_IffEEvPKfPT_iiPKT0_S7_b.exit, label %.preheader67.us.i, !llvm.loop !136

41:                                               ; preds = %24
  %42 = load float, ptr %4, align 4
  %43 = load float, ptr %5, align 4
  %44 = icmp sgt i32 %2, 0
  br i1 %44, label %.lr.ph.preheader.i, label %_ZN2cvL11randnScale_IffEEvPKfPT_iiPKT0_S7_b.exit

.lr.ph.preheader.i:                               ; preds = %41
  %wide.trip.count94.i = zext nneg i32 %2 to i64
  br label %.lr.ph.i

.lr.ph.i:                                         ; preds = %.lr.ph.i, %.lr.ph.preheader.i
  %indvars.iv91.i = phi i64 [ 0, %.lr.ph.preheader.i ], [ %indvars.iv.next92.i, %.lr.ph.i ]
  %45 = getelementptr inbounds float, ptr %0, i64 %indvars.iv91.i
  %46 = load float, ptr %45, align 4
  %47 = tail call float @llvm.fmuladd.f32(float %46, float %43, float %42)
  %48 = getelementptr inbounds float, ptr %1, i64 %indvars.iv91.i
  store float %47, ptr %48, align 4
  %indvars.iv.next92.i = add nuw nsw i64 %indvars.iv91.i, 1
  %exitcond95.not.i = icmp eq i64 %indvars.iv.next92.i, %wide.trip.count94.i
  br i1 %exitcond95.not.i, label %_ZN2cvL11randnScale_IffEEvPKfPT_iiPKT0_S7_b.exit, label %.lr.ph.i, !llvm.loop !137

_ZN2cvL11randnScale_IffEEvPKfPT_iiPKT0_S7_b.exit: ; preds = %._crit_edge.us.i, %.lr.ph.i, %._crit_edge80.split.us.us.i, %.preheader65.i, %.preheader.lr.ph.i, %.preheader68.i, %.preheader67.lr.ph.i, %41
  ret void
}